; Function Attrs: mustprogress nofree norecurse nosync nounwind willreturn memory(argmem: read) uwtable
define hidden noundef i64 @_ZNK22G1CodeRootSetHashTable15HashTableLookUp8get_hashEv(ptr nocapture noundef nonnull readonly align 8 dereferenceable(8) %0) local_unnamed_addr #0 align 2 {
  %2 = load ptr, ptr %0, align 8
  %3 = ptrtoint ptr %2 to i64
  %4 = lshr i64 %3, 32
  %5 = xor i64 %4, %3
  %6 = trunc i64 %5 to i32
  %7 = xor i32 %6, -1
  %8 = shl i32 %6, 15
  %9 = add i32 %8, %7
  %10 = lshr i32 %9, 12
  %11 = xor i32 %10, %9
  %12 = mul i32 %11, 5
  %13 = lshr i32 %12, 4
  %14 = xor i32 %13, %12
  %15 = mul i32 %14, 2057
  %16 = lshr i32 %15, 16
  %17 = xor i32 %16, %15
  %18 = zext i32 %17 to i64
  ret i64 %18
}